(dp0
S'account_cache'
p1
ccollections
OrderedDict
p2
((lp3
(lp4
V010600035067
p5
a(dp6
S'position_value'
p7
F0.0
sS'usable'
p8
F2.37
sS'moneyAccount'
p9
S''
p10
sS'trdPwd'
p11
V524677
p12
sS'broker'
p13
V\u534e\u6cf0\u8bc1\u5238
p14
sS'entrust'
p15
ccopy_reg
_reconstructor
p16
(cpandas.core.frame
DataFrame
p17
c__builtin__
object
p18
Ntp19
Rp20
(dp21
S'_metadata'
p22
(lp23
sS'_typ'
p24
S'dataframe'
p25
sS'_data'
p26
g16
(cpandas.core.internals
BlockManager
p27
g18
Ntp28
Rp29
((lp30
cpandas.core.index
_new_Index
p31
(cpandas.core.index
Index
p32
(dp33
S'data'
p34
cnumpy.core.multiarray
_reconstruct
p35
(cnumpy
ndarray
p36
(I0
tp37
S'b'
p38
tp39
Rp40
(I1
(I9
tp41
cnumpy
dtype
p42
(S'O4'
p43
I0
I1
tp44
Rp45
(I3
S'|'
p46
NNNI-1
I-1
I63
tp47
bI00
(lp48
S'StockCode'
p49
aS'SotckName'
p50
aS'Direction'
p51
aS'EntruPrice'
p52
aS'EntruVol'
p53
aS'OrderState'
p54
aS'DealVol'
p55
aS'EntruId'
p56
aS'EntruTime'
p57
atp58
bsS'name'
p59
Nstp60
Rp61
ag31
(g32
(dp62
g34
g35
(g36
(I0
tp63
g38
tp64
Rp65
(I1
(I0
tp66
g45
I00
(lp67
tp68
bsg59
Nstp69
Rp70
a(lp71
g35
(g36
(I0
tp72
g38
tp73
Rp74
(I1
(I3
I0
tp75
g42
(S'i4'
p76
I0
I1
tp77
Rp78
(I3
S'<'
p79
NNNI-1
I-1
I0
tp80
bI00
g10
tp81
bag35
(g36
(I0
tp82
g38
tp83
Rp84
(I1
(I5
I0
tp85
g45
I00
(lp86
tp87
bag35
(g36
(I0
tp88
g38
tp89
Rp90
(I1
(I1
I0
tp91
g42
(S'f8'
p92
I0
I1
tp93
Rp94
(I3
S'<'
p95
NNNI-1
I-1
I0
tp96
bI00
g10
tp97
ba(lp98
g31
(g32
(dp99
g34
g35
(g36
(I0
tp100
g38
tp101
Rp102
(I1
(I3
tp103
g45
I00
(lp104
g51
ag53
ag55
atp105
bsg59
Nstp106
Rp107
ag31
(g32
(dp108
g34
g35
(g36
(I0
tp109
g38
tp110
Rp111
(I1
(I5
tp112
g45
I00
(lp113
g49
ag50
ag54
ag56
ag57
atp114
bsg59
Nstp115
Rp116
ag31
(g32
(dp117
g34
g35
(g36
(I0
tp118
g38
tp119
Rp120
(I1
(I1
tp121
g45
I00
(lp122
g52
atp123
bsg59
Nstp124
Rp125
a(dp126
S'0.14.1'
p127
(dp128
S'axes'
p129
g30
sS'blocks'
p130
(lp131
(dp132
S'mgr_locs'
p133
c__builtin__
slice
p134
(I2
I8
L2L
tp135
Rp136
sS'values'
p137
g74
sa(dp138
g133
g35
(g36
(I0
tp139
g38
tp140
Rp141
(I1
(I5
tp142
g42
(S'i8'
p143
I0
I1
tp144
Rp145
(I3
S'<'
p146
NNNI-1
I-1
I0
tp147
bI00
S'\x00\x00\x00\x00\x00\x00\x00\x00\x01\x00\x00\x00\x00\x00\x00\x00\x05\x00\x00\x00\x00\x00\x00\x00\x07\x00\x00\x00\x00\x00\x00\x00\x08\x00\x00\x00\x00\x00\x00\x00'
p148
tp149
bsg137
g84
sa(dp150
g133
g134
(L3L
L4L
I1
tp151
Rp152
sg137
g90
sasstp153
bsbsS'holder'
p154
V\u4ee3\u8def\u7f18
p155
sS'userName'
p156
g5
sS'tradeApi'
p157
NsS'posLimit'
p158
V50%
p159
sS'entrustAll'
p160
g16
(g17
g18
Ntp161
Rp162
(dp163
g22
g23
sg24
g25
sg26
g16
(g27
g18
Ntp164
Rp165
((lp166
g31
(g32
(dp167
g34
g35
(g36
(I0
tp168
g38
tp169
Rp170
(I1
(I7
tp171
g45
I00
(lp172
g49
ag56
ag52
ag53
ag54
ag55
ag57
atp173
bsg59
Nstp174
Rp175
ag31
(g32
(dp176
g34
g35
(g36
(I0
tp177
g38
tp178
Rp179
(I1
(I0
tp180
g45
I00
(lp181
tp182
bsg59
Nstp183
Rp184
a(lp185
g35
(g36
(I0
tp186
g38
tp187
Rp188
(I1
(I4
I0
tp189
g45
I00
(lp190
tp191
bag35
(g36
(I0
tp192
g38
tp193
Rp194
(I1
(I1
I0
tp195
g94
I00
g10
tp196
bag35
(g36
(I0
tp197
g38
tp198
Rp199
(I1
(I2
I0
tp200
g78
I00
g10
tp201
ba(lp202
g31
(g32
(dp203
g34
g35
(g36
(I0
tp204
g38
tp205
Rp206
(I1
(I4
tp207
g45
I00
(lp208
g49
ag56
ag54
ag57
atp209
bsg59
Nstp210
Rp211
ag31
(g32
(dp212
g34
g35
(g36
(I0
tp213
g38
tp214
Rp215
(I1
(I1
tp216
g45
I00
(lp217
g52
atp218
bsg59
Nstp219
Rp220
ag31
(g32
(dp221
g34
g35
(g36
(I0
tp222
g38
tp223
Rp224
(I1
(I2
tp225
g45
I00
(lp226
g53
ag55
atp227
bsg59
Nstp228
Rp229
a(dp230
g127
(dp231
g129
g166
sg130
(lp232
(dp233
g133
g35
(g36
(I0
tp234
g38
tp235
Rp236
(I1
(I4
tp237
g145
I00
S'\x00\x00\x00\x00\x00\x00\x00\x00\x01\x00\x00\x00\x00\x00\x00\x00\x04\x00\x00\x00\x00\x00\x00\x00\x06\x00\x00\x00\x00\x00\x00\x00'
p238
tp239
bsg137
g188
sa(dp240
g133
g134
(I2
I3
I1
tp241
Rp242
sg137
g194
sa(dp243
g133
g134
(I3
I7
L2L
tp244
Rp245
sg137
g199
sasstp246
bsbsS'comPwd'
p247
V189809
p248
sS'asset'
p249
F2.37
sS'pos_percent'
p250
F0.0
sS'position'
p251
g16
(g17
g18
Ntp252
Rp253
(dp254
g22
g23
sg24
g25
sg26
g16
(g27
g18
Ntp255
Rp256
((lp257
g31
(g32
(dp258
g34
g35
(g36
(I0
tp259
g38
tp260
Rp261
(I1
(I8
tp262
g45
I00
(lp263
g49
ag50
ag51
aS'TotalSize'
p264
aS'CoverableSize'
p265
aS'FrozenSize'
p266
aS'MarketValue'
p267
aS'CostValue'
p268
atp269
bsg59
Nstp270
Rp271
ag31
(g32
(dp272
g34
g35
(g36
(I0
tp273
g38
tp274
Rp275
(I1
(I0
tp276
g45
I00
(lp277
tp278
bsg59
Nstp279
Rp280
a(lp281
g35
(g36
(I0
tp282
g38
tp283
Rp284
(I1
(I2
I0
tp285
g94
I00
g10
tp286
bag35
(g36
(I0
tp287
g38
tp288
Rp289
(I1
(I3
I0
tp290
g78
I00
g10
tp291
bag35
(g36
(I0
tp292
g38
tp293
Rp294
(I1
(I1
I0
tp295
g145
I00
g10
tp296
bag35
(g36
(I0
tp297
g38
tp298
Rp299
(I1
(I2
I0
tp300
g45
I00
(lp301
tp302
ba(lp303
g31
(g32
(dp304
g34
g35
(g36
(I0
tp305
g38
tp306
Rp307
(I1
(I2
tp308
g45
I00
(lp309
g267
ag268
atp310
bsg59
Nstp311
Rp312
ag31
(g32
(dp313
g34
g35
(g36
(I0
tp314
g38
tp315
Rp316
(I1
(I3
tp317
g45
I00
(lp318
g264
ag265
ag266
atp319
bsg59
Nstp320
Rp321
ag31
(g32
(dp322
g34
g35
(g36
(I0
tp323
g38
tp324
Rp325
(I1
(I1
tp326
g45
I00
(lp327
g51
atp328
bsg59
Nstp329
Rp330
ag31
(g32
(dp331
g34
g35
(g36
(I0
tp332
g38
tp333
Rp334
(I1
(I2
tp335
g45
I00
(lp336
g49
ag50
atp337
bsg59
Nstp338
Rp339
a(dp340
g127
(dp341
g129
g257
sg130
(lp342
(dp343
g133
g134
(I6
I8
L1L
tp344
Rp345
sg137
g284
sa(dp346
g133
g134
(I3
I6
L1L
tp347
Rp348
sg137
g289
sa(dp349
g133
g134
(I2
I3
I1
tp350
Rp351
sg137
g294
sa(dp352
g133
g134
(I0
I2
L1L
tp353
Rp354
sg137
g299
sasstp355
bsbsaatp356
Rp357
sS'248'
p358
(dp359
S'max_drawdown_dict'
p360
g2
((lp361
(lp362
g5
ag2
((lp363
tp364
Rp365
aatp366
Rp367
sS'UpLimitBuyConditions_1stNew'
p368
g2
((lp369
(lp370
g5
ag2
((lp371
tp372
Rp373
aatp374
Rp375
sS'run_time_dict'
p376
(dp377
S'qttable_1st_up_limit_pool'
p378
(lp379
(csip
_unpickle_type
p380
(S'PyQt4.QtCore'
p381
S'QTime'
p382
(I9
I26
I0
I0
tp383
tp384
Rp385
g380
(g381
S'QTime'
p386
(I9
I59
I0
I0
tp387
tp388
Rp389
tp390
asS'qttable_up_limit_pool'
p391
(lp392
(g380
(g381
S'QTime'
p393
(I9
I26
I0
I0
tp394
tp395
Rp396
g380
(g381
S'QTime'
p397
(I9
I55
I0
I0
tp398
tp399
Rp400
tp401
asS'qttable_1stnew_up_limit_pool'
p402
(lp403
(g380
(g381
S'QTime'
p404
(I9
I26
I0
I0
tp405
tp406
Rp407
g380
(g381
S'QTime'
p408
(I9
I57
I0
I0
tp409
tp410
Rp411
tp412
assS'max_trade_dict'
p413
(dp414
g378
I3
sg391
I3
sg402
I3
ssS'orderid2pooldict:'
p415
(dp416
sS'pool2tradecount:'
p417
(dp418
g5
(dp419
ssS'stop_loss_dict'
p420
g2
((lp421
(lp422
g5
ag2
((lp423
tp424
Rp425
aatp426
Rp427
sS'orderkeyset:'
p428
c__builtin__
set
p429
((lp430
tp431
Rp432
sS'UpLimitBuyConditions'
p433
g2
((lp434
(lp435
g5
ag2
((lp436
tp437
Rp438
aatp439
Rp440
sS'vpBuyConditions'
p441
g2
((lp442
(lp443
g5
ag2
((lp444
tp445
Rp446
aatp447
Rp448
ss.